target datalayout = "e-m:e-p270:32:32-p271:32:32-p272:64:64-i64:64-i128:128-f80:128-n8:16:32:64-S128"
target triple = "x86_64-pc-linux-gnu"

%struct.__ncnn_allocator_t = type { ptr, ptr, ptr }
%"class.ncnn::Mat" = type { ptr, ptr, i64, i32, ptr, i32, i32, i32, i32, i32, i64 }

; Function Attrs: mustprogress uwtable
define hidden ptr @ncnn_mat_create_1d(i32 noundef %0, ptr noundef %1) #1 personality ptr @__gxx_personality_v0 {
  %3 = alloca ptr, align 8
  %4 = alloca i32, align 4
  %5 = alloca i64, align 8
  %6 = alloca ptr, align 8
  %7 = alloca i32, align 4
  %8 = alloca ptr, align 8
  %9 = alloca ptr, align 8
  %10 = alloca i32, align 4
  store i32 %0, ptr %7, align 4
  store ptr %1, ptr %8, align 8
  %11 = call noalias noundef nonnull ptr @_Znwm(i64 noundef 72) #13
  %12 = load i32, ptr %7, align 4
  %13 = load ptr, ptr %8, align 8
  %14 = icmp ne ptr %13, null
  br i1 %14, label %15, label %19

15:                                               ; preds = %2
  %16 = load ptr, ptr %8, align 8
  %17 = getelementptr inbounds nuw %struct.__ncnn_allocator_t, ptr %16, i32 0, i32 0
  %18 = load ptr, ptr %17, align 8
  br label %20

19:                                               ; preds = %2
  br label %20

20:                                               ; preds = %19, %15
  %21 = phi ptr [ %18, %15 ], [ null, %19 ]
  store ptr %11, ptr %3, align 8
  store i32 %12, ptr %4, align 4
  store i64 4, ptr %5, align 8
  store ptr %21, ptr %6, align 8
  %22 = load ptr, ptr %3, align 8
  store ptr null, ptr %22, align 8
  %23 = getelementptr inbounds nuw %"class.ncnn::Mat", ptr %22, i32 0, i32 1
  store ptr null, ptr %23, align 8
  %24 = getelementptr inbounds nuw %"class.ncnn::Mat", ptr %22, i32 0, i32 2
  store i64 0, ptr %24, align 8
  %25 = getelementptr inbounds nuw %"class.ncnn::Mat", ptr %22, i32 0, i32 3
  store i32 0, ptr %25, align 8
  %26 = getelementptr inbounds nuw %"class.ncnn::Mat", ptr %22, i32 0, i32 4
  store ptr null, ptr %26, align 8
  %27 = getelementptr inbounds nuw %"class.ncnn::Mat", ptr %22, i32 0, i32 5
  store i32 0, ptr %27, align 8
  %28 = getelementptr inbounds nuw %"class.ncnn::Mat", ptr %22, i32 0, i32 6
  store i32 0, ptr %28, align 4
  %29 = getelementptr inbounds nuw %"class.ncnn::Mat", ptr %22, i32 0, i32 7
  store i32 0, ptr %29, align 8
  %30 = getelementptr inbounds nuw %"class.ncnn::Mat", ptr %22, i32 0, i32 8
  store i32 0, ptr %30, align 4
  %31 = getelementptr inbounds nuw %"class.ncnn::Mat", ptr %22, i32 0, i32 9
  store i32 0, ptr %31, align 8
  %32 = getelementptr inbounds nuw %"class.ncnn::Mat", ptr %22, i32 0, i32 10
  store i64 0, ptr %32, align 8
  %33 = load i32, ptr %4, align 4
  %34 = load i64, ptr %5, align 8
  %35 = load ptr, ptr %6, align 8
  invoke void @_ZN4ncnn3Mat6createEimPNS_9AllocatorE(ptr noundef nonnull align 8 dereferenceable(72) %22, i32 noundef %33, i64 noundef %34, ptr noundef %35)
          to label %36 unwind label %38

36:                                               ; preds = %20
  br label %37

37:                                               ; preds = %36
  ret ptr %11

38:                                               ; preds = %20
  %39 = landingpad { ptr, i32 }
          cleanup
  %40 = extractvalue { ptr, i32 } %39, 0
  store ptr %40, ptr %9, align 8
  %41 = extractvalue { ptr, i32 } %39, 1
  store i32 %41, ptr %10, align 4
  call void @_ZdlPvm(ptr noundef %11, i64 noundef 72) #14
  br label %42

42:                                               ; preds = %38
  %43 = load ptr, ptr %9, align 8
  %44 = load i32, ptr %10, align 4
  %45 = insertvalue { ptr, i32 } poison, ptr %43, 0
  %46 = insertvalue { ptr, i32 } %45, i32 %44, 1
  resume { ptr, i32 } %46
}