; Function Attrs: mustprogress uwtable
define hidden noundef nonnull ptr @ncnn_mat_create_1d(i32 noundef %0, ptr noundef readonly %1) local_unnamed_addr #1 personality ptr @__gxx_personality_v0 {
  %3 = tail call noalias noundef nonnull dereferenceable(72) ptr @_Znwm(i64 noundef 72) #24
  %.not = icmp eq ptr %1, null
  br i1 %.not, label %6, label %4

4:                                                ; preds = %2
  %5 = load ptr, ptr %1, align 8
  br label %6

6:                                                ; preds = %2, %4
  %7 = phi ptr [ %5, %4 ], [ null, %2 ]
  %8 = getelementptr inbounds nuw i8, ptr %3, i64 32
  %9 = getelementptr inbounds nuw i8, ptr %3, i64 64
  store i64 0, ptr %9, align 8
  tail call void @llvm.memset.p0.i64(ptr noundef nonnull align 8 dereferenceable(28) %3, i8 0, i64 28, i1 false)
  tail call void @llvm.memset.p0.i64(ptr noundef nonnull align 8 dereferenceable(28) %8, i8 0, i64 28, i1 false)
  invoke void @_ZN4ncnn3Mat6createEimPNS_9AllocatorE(ptr noundef nonnull align 8 dereferenceable(72) %3, i32 noundef %0, i64 noundef 4, ptr noundef %7)
          to label %10 unwind label %11

10:                                               ; preds = %6
  ret ptr %3

11:                                               ; preds = %6
  %12 = landingpad { ptr, i32 }
          cleanup
  tail call void @_ZdlPvm(ptr noundef nonnull %3, i64 noundef 72) #25
  resume { ptr, i32 } %12
}